target datalayout = "e-m:e-p270:32:32-p271:32:32-p272:64:64-i64:64-i128:128-f80:128-n8:16:32:64-S128"
target triple = "x86_64-pc-linux-gnu"

%struct._zval_struct = type { %union._zend_value, %union.anon, %union.anon.2 }
%union._zend_value = type { i64 }
%union.anon = type { i32 }
%union.anon.2 = type { i32 }
%struct._zend_refcounted_h = type { i32, %union.anon.3 }
%union.anon.3 = type { i32 }
%struct._zend_object = type { %struct._zend_refcounted_h, i32, ptr, ptr, ptr, [1 x %struct._zval_struct] }
%struct._zend_execute_data = type { ptr, ptr, ptr, ptr, %struct._zval_struct, ptr, ptr, ptr, ptr }
%struct._zend_string = type { %struct._zend_refcounted_h, i64, i64, [1 x i8] }

@zend_known_strings = external global ptr, align 8
@zend_ce_exception = global ptr null, align 8
@zend_ce_error = global ptr null, align 8

; Function Attrs: nounwind uwtable
define internal ptr @i_get_exception_base(ptr noundef %0) #0 {
  %2 = alloca ptr, align 8
  %3 = alloca ptr, align 8
  %4 = alloca ptr, align 8
  store ptr %0, ptr %4, align 8
  %5 = load ptr, ptr %4, align 8
  %6 = getelementptr inbounds %struct._zend_object, ptr %5, i32 0, i32 2
  %7 = load ptr, ptr %6, align 8
  %8 = load ptr, ptr @zend_ce_exception, align 8
  store ptr %7, ptr %2, align 8
  store ptr %8, ptr %3, align 8
  %9 = load ptr, ptr %2, align 8
  %10 = load ptr, ptr %3, align 8
  %11 = icmp eq ptr %9, %10
  br i1 %11, label %16, label %12

12:                                               ; preds = %1
  %13 = load ptr, ptr %2, align 8
  %14 = load ptr, ptr %3, align 8
  %15 = call zeroext i1 @instanceof_function_slow(ptr noundef %13, ptr noundef %14) #12
  br label %16

16:                                               ; preds = %12, %1
  %17 = phi i1 [ true, %1 ], [ %15, %12 ]
  br i1 %17, label %18, label %20

18:                                               ; preds = %16
  %19 = load ptr, ptr @zend_ce_exception, align 8
  br label %22

20:                                               ; preds = %16
  %21 = load ptr, ptr @zend_ce_error, align 8
  br label %22

22:                                               ; preds = %20, %18
  %23 = phi ptr [ %19, %18 ], [ %21, %20 ]
  ret ptr %23
}

; Function Attrs: nounwind uwtable
define hidden void @zim_Exception___wakeup(ptr noundef %0, ptr noundef %1) #0 {
  %3 = alloca ptr, align 8
  %4 = alloca ptr, align 8
  %5 = alloca ptr, align 8
  %6 = alloca ptr, align 8
  %7 = alloca ptr, align 8
  %8 = alloca ptr, align 8
  %9 = alloca %struct._zval_struct, align 8
  %10 = alloca ptr, align 8
  %11 = alloca ptr, align 8
  store ptr %0, ptr %7, align 8
  store ptr %1, ptr %8, align 8
  br label %12

12:                                               ; preds = %2
  %13 = load ptr, ptr %7, align 8
  %14 = getelementptr inbounds %struct._zend_execute_data, ptr %13, i32 0, i32 4
  %15 = getelementptr inbounds %struct._zval_struct, ptr %14, i32 0, i32 2
  %16 = load i32, ptr %15, align 4
  %17 = icmp ne i32 %16, 0
  %18 = xor i1 %17, true
  %19 = xor i1 %18, true
  %20 = zext i1 %19 to i32
  %21 = sext i32 %20 to i64
  %22 = icmp ne i64 %21, 0
  br i1 %22, label %23, label %24

23:                                               ; preds = %12
  call void @zend_wrong_parameters_none_error()
  br label %113

24:                                               ; preds = %12
  br label %25

25:                                               ; preds = %24
  %26 = load ptr, ptr %7, align 8
  %27 = getelementptr inbounds %struct._zend_execute_data, ptr %26, i32 0, i32 4
  store ptr %27, ptr %11, align 8
  %28 = load ptr, ptr %11, align 8
  %29 = getelementptr inbounds %struct._zval_struct, ptr %28, i32 0, i32 0
  %30 = load ptr, ptr %29, align 8
  %31 = call ptr @i_get_exception_base(ptr noundef %30)
  %32 = load ptr, ptr %11, align 8
  %33 = getelementptr inbounds %struct._zval_struct, ptr %32, i32 0, i32 0
  %34 = load ptr, ptr %33, align 8
  %35 = load ptr, ptr @zend_known_strings, align 8
  %36 = getelementptr inbounds ptr, ptr %35, i64 25
  %37 = load ptr, ptr %36, align 8
  %38 = call ptr @zend_read_property_ex(ptr noundef %31, ptr noundef %34, ptr noundef %37, i1 noundef zeroext true, ptr noundef %9)
  store ptr %38, ptr %10, align 8
  %39 = load ptr, ptr %10, align 8
  store ptr %39, ptr %3, align 8
  %40 = load ptr, ptr %3, align 8
  %41 = getelementptr inbounds %struct._zval_struct, ptr %40, i32 0, i32 1
  %42 = load i8, ptr %41, align 8
  %43 = zext i8 %42 to i32
  %44 = icmp ne i32 %43, 1
  br i1 %44, label %45, label %70

45:                                               ; preds = %25
  %46 = load ptr, ptr %10, align 8
  store ptr %46, ptr %4, align 8
  %47 = load ptr, ptr %4, align 8
  %48 = getelementptr inbounds %struct._zval_struct, ptr %47, i32 0, i32 1
  %49 = load i8, ptr %48, align 8
  %50 = zext i8 %49 to i32
  %51 = icmp ne i32 %50, 6
  br i1 %51, label %52, label %70

52:                                               ; preds = %45
  %53 = load ptr, ptr %11, align 8
  %54 = getelementptr inbounds %struct._zval_struct, ptr %53, i32 0, i32 0
  %55 = load ptr, ptr %54, align 8
  %56 = call ptr @i_get_exception_base(ptr noundef %55)
  %57 = load ptr, ptr %11, align 8
  %58 = getelementptr inbounds %struct._zval_struct, ptr %57, i32 0, i32 0
  %59 = load ptr, ptr %58, align 8
  %60 = load ptr, ptr @zend_known_strings, align 8
  %61 = getelementptr inbounds ptr, ptr %60, i64 25
  %62 = load ptr, ptr %61, align 8
  %63 = getelementptr inbounds %struct._zend_string, ptr %62, i32 0, i32 3
  %64 = getelementptr inbounds [1 x i8], ptr %63, i64 0, i64 0
  %65 = load ptr, ptr @zend_known_strings, align 8
  %66 = getelementptr inbounds ptr, ptr %65, i64 25
  %67 = load ptr, ptr %66, align 8
  %68 = getelementptr inbounds %struct._zend_string, ptr %67, i32 0, i32 2
  %69 = load i64, ptr %68, align 8
  call void @zend_unset_property(ptr noundef %56, ptr noundef %59, ptr noundef %64, i64 noundef %69)
  br label %70

70:                                               ; preds = %52, %45, %25
  %71 = load ptr, ptr %11, align 8
  %72 = getelementptr inbounds %struct._zval_struct, ptr %71, i32 0, i32 0
  %73 = load ptr, ptr %72, align 8
  %74 = call ptr @i_get_exception_base(ptr noundef %73)
  %75 = load ptr, ptr %11, align 8
  %76 = getelementptr inbounds %struct._zval_struct, ptr %75, i32 0, i32 0
  %77 = load ptr, ptr %76, align 8
  %78 = load ptr, ptr @zend_known_strings, align 8
  %79 = getelementptr inbounds ptr, ptr %78, i64 24
  %80 = load ptr, ptr %79, align 8
  %81 = call ptr @zend_read_property_ex(ptr noundef %74, ptr noundef %77, ptr noundef %80, i1 noundef zeroext true, ptr noundef %9)
  store ptr %81, ptr %10, align 8
  %82 = load ptr, ptr %10, align 8
  store ptr %82, ptr %5, align 8
  %83 = load ptr, ptr %5, align 8
  %84 = getelementptr inbounds %struct._zval_struct, ptr %83, i32 0, i32 1
  %85 = load i8, ptr %84, align 8
  %86 = zext i8 %85 to i32
  %87 = icmp ne i32 %86, 1
  br i1 %87, label %88, label %113

88:                                               ; preds = %70
  %89 = load ptr, ptr %10, align 8
  store ptr %89, ptr %6, align 8
  %90 = load ptr, ptr %6, align 8
  %91 = getelementptr inbounds %struct._zval_struct, ptr %90, i32 0, i32 1
  %92 = load i8, ptr %91, align 8
  %93 = zext i8 %92 to i32
  %94 = icmp ne i32 %93, 4
  br i1 %94, label %95, label %113

95:                                               ; preds = %88
  %96 = load ptr, ptr %11, align 8
  %97 = getelementptr inbounds %struct._zval_struct, ptr %96, i32 0, i32 0
  %98 = load ptr, ptr %97, align 8
  %99 = call ptr @i_get_exception_base(ptr noundef %98)
  %100 = load ptr, ptr %11, align 8
  %101 = getelementptr inbounds %struct._zval_struct, ptr %100, i32 0, i32 0
  %102 = load ptr, ptr %101, align 8
  %103 = load ptr, ptr @zend_known_strings, align 8
  %104 = getelementptr inbounds ptr, ptr %103, i64 24
  %105 = load ptr, ptr %104, align 8
  %106 = getelementptr inbounds %struct._zend_string, ptr %105, i32 0, i32 3
  %107 = getelementptr inbounds [1 x i8], ptr %106, i64 0, i64 0
  %108 = load ptr, ptr @zend_known_strings, align 8
  %109 = getelementptr inbounds ptr, ptr %108, i64 24
  %110 = load ptr, ptr %109, align 8
  %111 = getelementptr inbounds %struct._zend_string, ptr %110, i32 0, i32 2
  %112 = load i64, ptr %111, align 8
  call void @zend_unset_property(ptr noundef %99, ptr noundef %102, ptr noundef %107, i64 noundef %112)
  br label %113

113:                                              ; preds = %95, %88, %70, %23
  ret void
}