; Function Attrs: nounwind uwtable
define hidden void @zim_Exception___wakeup(ptr nocapture noundef readonly %0, ptr nocapture readnone %1) #0 {
  %3 = alloca %struct._zval_struct, align 8
  %4 = getelementptr inbounds i8, ptr %0, i64 32
  %5 = getelementptr inbounds i8, ptr %0, i64 44
  %6 = load i32, ptr %5, align 4
  %.not = icmp eq i32 %6, 0
  br i1 %.not, label %8, label %7

7:                                                ; preds = %2
  tail call void @zend_wrong_parameters_none_error() #15
  br label %68

8:                                                ; preds = %2
  %9 = load ptr, ptr %4, align 8
  %10 = getelementptr i8, ptr %9, i64 16
  %.val25 = load ptr, ptr %10, align 8
  %11 = load ptr, ptr @zend_ce_exception, align 8
  %12 = icmp eq ptr %11, %.val25
  br i1 %12, label %i_get_exception_base.exit, label %13

13:                                               ; preds = %8
  %14 = tail call zeroext i1 @instanceof_function_slow(ptr noundef %.val25, ptr noundef %11) #15
  %zend_ce_exception.val.i = load ptr, ptr @zend_ce_exception, align 8
  %zend_ce_error.val.i = load ptr, ptr @zend_ce_error, align 8
  %.pre.i = select i1 %14, ptr %zend_ce_exception.val.i, ptr %zend_ce_error.val.i
  %.pre = load ptr, ptr %4, align 8
  br label %i_get_exception_base.exit

i_get_exception_base.exit:                        ; preds = %8, %13
  %15 = phi ptr [ %9, %8 ], [ %.pre, %13 ]
  %16 = phi ptr [ %.val25, %8 ], [ %.pre.i, %13 ]
  %17 = load ptr, ptr @zend_known_strings, align 8
  %18 = getelementptr inbounds i8, ptr %17, i64 200
  %19 = load ptr, ptr %18, align 8
  %20 = call ptr @zend_read_property_ex(ptr noundef %16, ptr noundef %15, ptr noundef %19, i1 noundef zeroext true, ptr noundef nonnull %3) #15
  %21 = getelementptr inbounds i8, ptr %20, i64 8
  %22 = load i8, ptr %21, align 8
  switch i8 %22, label %23 [
    i8 1, label %38
    i8 6, label %38
  ]

23:                                               ; preds = %i_get_exception_base.exit
  %24 = load ptr, ptr %4, align 8
  %25 = getelementptr i8, ptr %24, i64 16
  %.val24 = load ptr, ptr %25, align 8
  %26 = load ptr, ptr @zend_ce_exception, align 8
  %27 = icmp eq ptr %26, %.val24
  br i1 %27, label %i_get_exception_base.exit29, label %28

28:                                               ; preds = %23
  %29 = call zeroext i1 @instanceof_function_slow(ptr noundef %.val24, ptr noundef %26) #15
  %zend_ce_exception.val.i26 = load ptr, ptr @zend_ce_exception, align 8
  %zend_ce_error.val.i27 = load ptr, ptr @zend_ce_error, align 8
  %.pre.i28 = select i1 %29, ptr %zend_ce_exception.val.i26, ptr %zend_ce_error.val.i27
  %.pre38 = load ptr, ptr %4, align 8
  br label %i_get_exception_base.exit29

i_get_exception_base.exit29:                      ; preds = %23, %28
  %30 = phi ptr [ %24, %23 ], [ %.pre38, %28 ]
  %31 = phi ptr [ %.val24, %23 ], [ %.pre.i28, %28 ]
  %32 = load ptr, ptr @zend_known_strings, align 8
  %33 = getelementptr inbounds i8, ptr %32, i64 200
  %34 = load ptr, ptr %33, align 8
  %35 = getelementptr inbounds i8, ptr %34, i64 24
  %36 = getelementptr inbounds i8, ptr %34, i64 16
  %37 = load i64, ptr %36, align 8
  call void @zend_unset_property(ptr noundef %31, ptr noundef %30, ptr noundef nonnull %35, i64 noundef %37) #15
  br label %38

38:                                               ; preds = %i_get_exception_base.exit, %i_get_exception_base.exit, %i_get_exception_base.exit29
  %39 = load ptr, ptr %4, align 8
  %40 = getelementptr i8, ptr %39, i64 16
  %.val23 = load ptr, ptr %40, align 8
  %41 = load ptr, ptr @zend_ce_exception, align 8
  %42 = icmp eq ptr %41, %.val23
  br i1 %42, label %i_get_exception_base.exit33, label %43

43:                                               ; preds = %38
  %44 = call zeroext i1 @instanceof_function_slow(ptr noundef %.val23, ptr noundef %41) #15
  %zend_ce_exception.val.i30 = load ptr, ptr @zend_ce_exception, align 8
  %zend_ce_error.val.i31 = load ptr, ptr @zend_ce_error, align 8
  %.pre.i32 = select i1 %44, ptr %zend_ce_exception.val.i30, ptr %zend_ce_error.val.i31
  %.pre39 = load ptr, ptr %4, align 8
  br label %i_get_exception_base.exit33

i_get_exception_base.exit33:                      ; preds = %38, %43
  %45 = phi ptr [ %39, %38 ], [ %.pre39, %43 ]
  %46 = phi ptr [ %.val23, %38 ], [ %.pre.i32, %43 ]
  %47 = load ptr, ptr @zend_known_strings, align 8
  %48 = getelementptr inbounds i8, ptr %47, i64 192
  %49 = load ptr, ptr %48, align 8
  %50 = call ptr @zend_read_property_ex(ptr noundef %46, ptr noundef %45, ptr noundef %49, i1 noundef zeroext true, ptr noundef nonnull %3) #15
  %51 = getelementptr inbounds i8, ptr %50, i64 8
  %52 = load i8, ptr %51, align 8
  switch i8 %52, label %53 [
    i8 1, label %68
    i8 4, label %68
  ]

53:                                               ; preds = %i_get_exception_base.exit33
  %54 = load ptr, ptr %4, align 8
  %55 = getelementptr i8, ptr %54, i64 16
  %.val = load ptr, ptr %55, align 8
  %56 = load ptr, ptr @zend_ce_exception, align 8
  %57 = icmp eq ptr %56, %.val
  br i1 %57, label %i_get_exception_base.exit37, label %58

58:                                               ; preds = %53
  %59 = call zeroext i1 @instanceof_function_slow(ptr noundef %.val, ptr noundef %56) #15
  %zend_ce_exception.val.i34 = load ptr, ptr @zend_ce_exception, align 8
  %zend_ce_error.val.i35 = load ptr, ptr @zend_ce_error, align 8
  %.pre.i36 = select i1 %59, ptr %zend_ce_exception.val.i34, ptr %zend_ce_error.val.i35
  %.pre40 = load ptr, ptr %4, align 8
  br label %i_get_exception_base.exit37

i_get_exception_base.exit37:                      ; preds = %53, %58
  %60 = phi ptr [ %54, %53 ], [ %.pre40, %58 ]
  %61 = phi ptr [ %.val, %53 ], [ %.pre.i36, %58 ]
  %62 = load ptr, ptr @zend_known_strings, align 8
  %63 = getelementptr inbounds i8, ptr %62, i64 192
  %64 = load ptr, ptr %63, align 8
  %65 = getelementptr inbounds i8, ptr %64, i64 24
  %66 = getelementptr inbounds i8, ptr %64, i64 16
  %67 = load i64, ptr %66, align 8
  call void @zend_unset_property(ptr noundef %61, ptr noundef %60, ptr noundef nonnull %65, i64 noundef %67) #15
  br label %68

68:                                               ; preds = %i_get_exception_base.exit33, %i_get_exception_base.exit33, %i_get_exception_base.exit37, %7
  ret void
}